target datalayout = "e-m:e-p270:32:32-p271:32:32-p272:64:64-i64:64-i128:128-f80:128-n8:16:32:64-S128"
target triple = "x86_64-pc-linux-gnu"

%struct.access_mask_info = type { ptr, ptr, ptr, ptr }
%struct.generic_mapping = type { i32, i32, i32, i32 }
%struct.standard_mapping = type { i32, i32, i32, i32 }

@dissect_nt_access_mask.generic_access_flags = internal constant [7 x ptr] [ptr @hf_access_generic_read, ptr @hf_access_generic_write, ptr @hf_access_generic_execute, ptr @hf_access_generic_all, ptr @hf_access_maximum_allowed, ptr @hf_access_sacl, ptr null], align 16
@dissect_nt_access_mask.standard_access_flags = internal constant [6 x ptr] [ptr @hf_access_standard_synchronise, ptr @hf_access_standard_write_owner, ptr @hf_access_standard_write_dac, ptr @hf_access_standard_read_control, ptr @hf_access_standard_delete, ptr null], align 16
@ett_nt_access_mask = internal global i32 0, align 4
@ett_nt_access_mask_generic = internal global i32 0, align 4
@.str.29 = private unnamed_addr constant [23 x i8] c"Generic rights: 0x%08x\00", align 1
@ett_nt_access_mask_standard = internal global i32 0, align 4
@.str.30 = private unnamed_addr constant [24 x i8] c"Standard rights: 0x%08x\00", align 1
@ett_nt_access_mask_specific = internal global i32 0, align 4
@.str.31 = private unnamed_addr constant [27 x i8] c"%s specific rights: 0x%08x\00", align 1
@.str.32 = private unnamed_addr constant [24 x i8] c"Specific rights: 0x%08x\00", align 1

; Function Attrs: nounwind null_pointer_is_valid sspstrong uwtable
define internal void @map_standard_access(ptr noundef %0, ptr noundef %1) #4 {
  %3 = alloca ptr, align 8
  %4 = alloca ptr, align 8
  store ptr %0, ptr %3, align 8
  store ptr %1, ptr %4, align 8
  %5 = load ptr, ptr %3, align 8
  %6 = load i32, ptr %5, align 4
  %7 = and i32 %6, 131072
  %8 = icmp ne i32 %7, 0
  br i1 %8, label %9, label %19

9:                                                ; preds = %2
  %10 = load ptr, ptr %3, align 8
  %11 = load i32, ptr %10, align 4
  %12 = and i32 %11, -131073
  store i32 %12, ptr %10, align 4
  %13 = load ptr, ptr %4, align 8
  %14 = getelementptr inbounds nuw %struct.standard_mapping, ptr %13, i32 0, i32 0
  %15 = load i32, ptr %14, align 4
  %16 = load ptr, ptr %3, align 8
  %17 = load i32, ptr %16, align 4
  %18 = or i32 %17, %15
  store i32 %18, ptr %16, align 4
  br label %19

19:                                               ; preds = %9, %2
  %20 = load ptr, ptr %3, align 8
  %21 = load i32, ptr %20, align 4
  %22 = and i32 %21, 1900544
  %23 = icmp ne i32 %22, 0
  br i1 %23, label %24, label %34

24:                                               ; preds = %19
  %25 = load ptr, ptr %3, align 8
  %26 = load i32, ptr %25, align 4
  %27 = and i32 %26, -1900545
  store i32 %27, ptr %25, align 4
  %28 = load ptr, ptr %4, align 8
  %29 = getelementptr inbounds nuw %struct.standard_mapping, ptr %28, i32 0, i32 3
  %30 = load i32, ptr %29, align 4
  %31 = load ptr, ptr %3, align 8
  %32 = load i32, ptr %31, align 4
  %33 = or i32 %32, %30
  store i32 %33, ptr %31, align 4
  br label %34

34:                                               ; preds = %24, %19
  ret void
}

; Function Attrs: nounwind null_pointer_is_valid sspstrong uwtable
define internal void @map_generic_access(ptr noundef %0, ptr noundef %1) #4 {
  %3 = alloca ptr, align 8
  %4 = alloca ptr, align 8
  store ptr %0, ptr %3, align 8
  store ptr %1, ptr %4, align 8
  %5 = load ptr, ptr %3, align 8
  %6 = load i32, ptr %5, align 4
  %7 = and i32 %6, -2147483648
  %8 = icmp ne i32 %7, 0
  br i1 %8, label %9, label %19

9:                                                ; preds = %2
  %10 = load ptr, ptr %3, align 8
  %11 = load i32, ptr %10, align 4
  %12 = and i32 %11, 2147483647
  store i32 %12, ptr %10, align 4
  %13 = load ptr, ptr %4, align 8
  %14 = getelementptr inbounds nuw %struct.generic_mapping, ptr %13, i32 0, i32 0
  %15 = load i32, ptr %14, align 4
  %16 = load ptr, ptr %3, align 8
  %17 = load i32, ptr %16, align 4
  %18 = or i32 %17, %15
  store i32 %18, ptr %16, align 4
  br label %19

19:                                               ; preds = %9, %2
  %20 = load ptr, ptr %3, align 8
  %21 = load i32, ptr %20, align 4
  %22 = and i32 %21, 1073741824
  %23 = icmp ne i32 %22, 0
  br i1 %23, label %24, label %34

24:                                               ; preds = %19
  %25 = load ptr, ptr %3, align 8
  %26 = load i32, ptr %25, align 4
  %27 = and i32 %26, -1073741825
  store i32 %27, ptr %25, align 4
  %28 = load ptr, ptr %4, align 8
  %29 = getelementptr inbounds nuw %struct.generic_mapping, ptr %28, i32 0, i32 1
  %30 = load i32, ptr %29, align 4
  %31 = load ptr, ptr %3, align 8
  %32 = load i32, ptr %31, align 4
  %33 = or i32 %32, %30
  store i32 %33, ptr %31, align 4
  br label %34

34:                                               ; preds = %24, %19
  %35 = load ptr, ptr %3, align 8
  %36 = load i32, ptr %35, align 4
  %37 = and i32 %36, 536870912
  %38 = icmp ne i32 %37, 0
  br i1 %38, label %39, label %49

39:                                               ; preds = %34
  %40 = load ptr, ptr %3, align 8
  %41 = load i32, ptr %40, align 4
  %42 = and i32 %41, -536870913
  store i32 %42, ptr %40, align 4
  %43 = load ptr, ptr %4, align 8
  %44 = getelementptr inbounds nuw %struct.generic_mapping, ptr %43, i32 0, i32 2
  %45 = load i32, ptr %44, align 4
  %46 = load ptr, ptr %3, align 8
  %47 = load i32, ptr %46, align 4
  %48 = or i32 %47, %45
  store i32 %48, ptr %46, align 4
  br label %49

49:                                               ; preds = %39, %34
  %50 = load ptr, ptr %3, align 8
  %51 = load i32, ptr %50, align 4
  %52 = and i32 %51, 268435456
  %53 = icmp ne i32 %52, 0
  br i1 %53, label %54, label %64

54:                                               ; preds = %49
  %55 = load ptr, ptr %3, align 8
  %56 = load i32, ptr %55, align 4
  %57 = and i32 %56, -268435457
  store i32 %57, ptr %55, align 4
  %58 = load ptr, ptr %4, align 8
  %59 = getelementptr inbounds nuw %struct.generic_mapping, ptr %58, i32 0, i32 3
  %60 = load i32, ptr %59, align 4
  %61 = load ptr, ptr %3, align 8
  %62 = load i32, ptr %61, align 4
  %63 = or i32 %62, %60
  store i32 %63, ptr %61, align 4
  br label %64

64:                                               ; preds = %54, %49
  ret void
}

; Function Attrs: null_pointer_is_valid sspstrong uwtable
define hidden i32 @dissect_nt_access_mask(ptr noundef %0, i32 noundef %1, ptr noundef %2, ptr noundef %3, ptr noundef %4, ptr noundef %5, i32 noundef %6, ptr noundef %7, ptr noundef %8) #1 {
  %10 = alloca i32, align 4
  %11 = alloca ptr, align 8
  %12 = alloca i32, align 4
  %13 = alloca ptr, align 8
  %14 = alloca ptr, align 8
  %15 = alloca ptr, align 8
  %16 = alloca ptr, align 8
  %17 = alloca i32, align 4
  %18 = alloca ptr, align 8
  %19 = alloca ptr, align 8
  %20 = alloca ptr, align 8
  %21 = alloca ptr, align 8
  %22 = alloca ptr, align 8
  %23 = alloca ptr, align 8
  %24 = alloca ptr, align 8
  %25 = alloca i32, align 4
  %26 = alloca i32, align 4
  %27 = alloca ptr, align 8
  %28 = alloca i32, align 4
  store ptr %0, ptr %11, align 8
  store i32 %1, ptr %12, align 4
  store ptr %2, ptr %13, align 8
  store ptr %3, ptr %14, align 8
  store ptr %4, ptr %15, align 8
  store ptr %5, ptr %16, align 8
  store i32 %6, ptr %17, align 4
  store ptr %7, ptr %18, align 8
  store ptr %8, ptr %19, align 8
  call void @llvm.lifetime.start.p0(i64 8, ptr %20) #8
  call void @llvm.lifetime.start.p0(i64 8, ptr %21) #8
  call void @llvm.lifetime.start.p0(i64 8, ptr %22) #8
  call void @llvm.lifetime.start.p0(i64 8, ptr %23) #8
  call void @llvm.lifetime.start.p0(i64 8, ptr %24) #8
  call void @llvm.lifetime.start.p0(i64 4, ptr %25) #8
  %29 = load ptr, ptr %16, align 8
  %30 = icmp ne ptr %29, null
  br i1 %30, label %31, label %39

31:                                               ; preds = %9
  %32 = load ptr, ptr %11, align 8
  %33 = load i32, ptr %12, align 4
  %34 = load ptr, ptr %13, align 8
  %35 = load ptr, ptr %15, align 8
  %36 = load ptr, ptr %16, align 8
  %37 = load i32, ptr %17, align 4
  %38 = call i32 @dissect_ndr_uint32(ptr noundef %32, i32 noundef %33, ptr noundef %34, ptr noundef null, ptr noundef %35, ptr noundef %36, i32 noundef %37, ptr noundef %25)
  store i32 %38, ptr %12, align 4
  br label %45

39:                                               ; preds = %9
  %40 = load ptr, ptr %11, align 8
  %41 = load i32, ptr %12, align 4
  %42 = call i32 @tvb_get_letohl(ptr noundef %40, i32 noundef %41)
  store i32 %42, ptr %25, align 4
  %43 = load i32, ptr %12, align 4
  %44 = add i32 %43, 4
  store i32 %44, ptr %12, align 4
  br label %45

45:                                               ; preds = %39, %31
  %46 = load ptr, ptr %19, align 8
  %47 = icmp ne ptr %46, null
  br i1 %47, label %48, label %51

48:                                               ; preds = %45
  %49 = load i32, ptr %25, align 4
  %50 = load ptr, ptr %19, align 8
  store i32 %49, ptr %50, align 4
  br label %51

51:                                               ; preds = %48, %45
  %52 = load ptr, ptr %14, align 8
  %53 = load i32, ptr %17, align 4
  %54 = load ptr, ptr %11, align 8
  %55 = load i32, ptr %12, align 4
  %56 = sub i32 %55, 4
  %57 = load i32, ptr %25, align 4
  %58 = call ptr @proto_tree_add_uint(ptr noundef %52, i32 noundef %53, ptr noundef %54, i32 noundef %56, i32 noundef 4, i32 noundef %57)
  store ptr %58, ptr %20, align 8
  %59 = load ptr, ptr %20, align 8
  %60 = load i32, ptr @ett_nt_access_mask, align 4
  %61 = call ptr @proto_item_add_subtree(ptr noundef %59, i32 noundef %60)
  store ptr %61, ptr %21, align 8
  %62 = load ptr, ptr %21, align 8
  %63 = load ptr, ptr %11, align 8
  %64 = load i32, ptr %12, align 4
  %65 = sub i32 %64, 4
  %66 = load i32, ptr @ett_nt_access_mask_generic, align 4
  %67 = load i32, ptr %25, align 4
  %68 = and i32 %67, -16777216
  %69 = call ptr (ptr, ptr, i32, i32, i32, ptr, ptr, ...) @proto_tree_add_subtree_format(ptr noundef %62, ptr noundef %63, i32 noundef %65, i32 noundef 4, i32 noundef %66, ptr noundef null, ptr noundef @.str.29, i32 noundef %68)
  store ptr %69, ptr %22, align 8
  %70 = load ptr, ptr %22, align 8
  %71 = load ptr, ptr %11, align 8
  %72 = load i32, ptr %12, align 4
  %73 = sub i32 %72, 4
  %74 = load i32, ptr %25, align 4
  %75 = zext i32 %74 to i64
  call void @proto_tree_add_bitmask_list_value(ptr noundef %70, ptr noundef %71, i32 noundef %73, i32 noundef 4, ptr noundef @dissect_nt_access_mask.generic_access_flags, i64 noundef %75)
  %76 = load ptr, ptr %21, align 8
  %77 = load ptr, ptr %11, align 8
  %78 = load i32, ptr %12, align 4
  %79 = sub i32 %78, 4
  %80 = load i32, ptr @ett_nt_access_mask_standard, align 4
  %81 = load i32, ptr %25, align 4
  %82 = and i32 %81, 16711680
  %83 = call ptr (ptr, ptr, i32, i32, i32, ptr, ptr, ...) @proto_tree_add_subtree_format(ptr noundef %76, ptr noundef %77, i32 noundef %79, i32 noundef 4, i32 noundef %80, ptr noundef null, ptr noundef @.str.30, i32 noundef %82)
  store ptr %83, ptr %23, align 8
  %84 = load ptr, ptr %23, align 8
  %85 = load ptr, ptr %11, align 8
  %86 = load i32, ptr %12, align 4
  %87 = sub i32 %86, 4
  %88 = load i32, ptr %25, align 4
  %89 = zext i32 %88 to i64
  call void @proto_tree_add_bitmask_list_value(ptr noundef %84, ptr noundef %85, i32 noundef %87, i32 noundef 4, ptr noundef @dissect_nt_access_mask.standard_access_flags, i64 noundef %89)
  %90 = load ptr, ptr %18, align 8
  %91 = icmp ne ptr %90, null
  br i1 %91, label %92, label %109

92:                                               ; preds = %51
  %93 = load ptr, ptr %18, align 8
  %94 = getelementptr inbounds nuw %struct.access_mask_info, ptr %93, i32 0, i32 0
  %95 = load ptr, ptr %94, align 8
  %96 = icmp ne ptr %95, null
  br i1 %96, label %97, label %109

97:                                               ; preds = %92
  %98 = load ptr, ptr %21, align 8
  %99 = load ptr, ptr %11, align 8
  %100 = load i32, ptr %12, align 4
  %101 = sub i32 %100, 4
  %102 = load i32, ptr @ett_nt_access_mask_specific, align 4
  %103 = load ptr, ptr %18, align 8
  %104 = getelementptr inbounds nuw %struct.access_mask_info, ptr %103, i32 0, i32 0
  %105 = load ptr, ptr %104, align 8
  %106 = load i32, ptr %25, align 4
  %107 = and i32 %106, 65535
  %108 = call ptr (ptr, ptr, i32, i32, i32, ptr, ptr, ...) @proto_tree_add_subtree_format(ptr noundef %98, ptr noundef %99, i32 noundef %101, i32 noundef 4, i32 noundef %102, ptr noundef %20, ptr noundef @.str.31, ptr noundef %105, i32 noundef %107)
  store ptr %108, ptr %24, align 8
  br label %118

109:                                              ; preds = %92, %51
  %110 = load ptr, ptr %21, align 8
  %111 = load ptr, ptr %11, align 8
  %112 = load i32, ptr %12, align 4
  %113 = sub i32 %112, 4
  %114 = load i32, ptr @ett_nt_access_mask_specific, align 4
  %115 = load i32, ptr %25, align 4
  %116 = and i32 %115, 65535
  %117 = call ptr (ptr, ptr, i32, i32, i32, ptr, ptr, ...) @proto_tree_add_subtree_format(ptr noundef %110, ptr noundef %111, i32 noundef %113, i32 noundef 4, i32 noundef %114, ptr noundef %20, ptr noundef @.str.32, i32 noundef %116)
  store ptr %117, ptr %24, align 8
  br label %118

118:                                              ; preds = %109, %97
  %119 = load ptr, ptr %18, align 8
  %120 = icmp ne ptr %119, null
  br i1 %120, label %121, label %171

121:                                              ; preds = %118
  %122 = load ptr, ptr %18, align 8
  %123 = getelementptr inbounds nuw %struct.access_mask_info, ptr %122, i32 0, i32 1
  %124 = load ptr, ptr %123, align 8
  %125 = icmp ne ptr %124, null
  br i1 %125, label %126, label %171

126:                                              ; preds = %121
  call void @llvm.lifetime.start.p0(i64 4, ptr %26) #8
  %127 = load i32, ptr %25, align 4
  store i32 %127, ptr %26, align 4
  call void @llvm.lifetime.start.p0(i64 8, ptr %27) #8
  %128 = load ptr, ptr %20, align 8
  %129 = load i32, ptr @ett_nt_access_mask_specific, align 4
  %130 = call ptr @proto_item_add_subtree(ptr noundef %128, i32 noundef %129)
  store ptr %130, ptr %27, align 8
  %131 = load ptr, ptr %18, align 8
  %132 = getelementptr inbounds nuw %struct.access_mask_info, ptr %131, i32 0, i32 1
  %133 = load ptr, ptr %132, align 8
  %134 = load ptr, ptr %11, align 8
  %135 = load i32, ptr %12, align 4
  %136 = sub i32 %135, 4
  %137 = load ptr, ptr %24, align 8
  %138 = load i32, ptr %25, align 4
  call void %133(ptr noundef %134, i32 noundef %136, ptr noundef %137, i32 noundef %138)
  %139 = load ptr, ptr %18, align 8
  %140 = getelementptr inbounds nuw %struct.access_mask_info, ptr %139, i32 0, i32 2
  %141 = load ptr, ptr %140, align 8
  %142 = icmp ne ptr %141, null
  br i1 %142, label %143, label %147

143:                                              ; preds = %126
  %144 = load ptr, ptr %18, align 8
  %145 = getelementptr inbounds nuw %struct.access_mask_info, ptr %144, i32 0, i32 2
  %146 = load ptr, ptr %145, align 8
  call void @map_generic_access(ptr noundef %25, ptr noundef %146)
  br label %147

147:                                              ; preds = %143, %126
  %148 = load ptr, ptr %18, align 8
  %149 = getelementptr inbounds nuw %struct.access_mask_info, ptr %148, i32 0, i32 3
  %150 = load ptr, ptr %149, align 8
  %151 = icmp ne ptr %150, null
  br i1 %151, label %152, label %156

152:                                              ; preds = %147
  %153 = load ptr, ptr %18, align 8
  %154 = getelementptr inbounds nuw %struct.access_mask_info, ptr %153, i32 0, i32 3
  %155 = load ptr, ptr %154, align 8
  call void @map_standard_access(ptr noundef %25, ptr noundef %155)
  br label %156

156:                                              ; preds = %152, %147
  %157 = load i32, ptr %25, align 4
  %158 = load i32, ptr %26, align 4
  %159 = icmp ne i32 %157, %158
  br i1 %159, label %160, label %169

160:                                              ; preds = %156
  %161 = load ptr, ptr %18, align 8
  %162 = getelementptr inbounds nuw %struct.access_mask_info, ptr %161, i32 0, i32 1
  %163 = load ptr, ptr %162, align 8
  %164 = load ptr, ptr %11, align 8
  %165 = load i32, ptr %12, align 4
  %166 = sub i32 %165, 4
  %167 = load ptr, ptr %27, align 8
  %168 = load i32, ptr %26, align 4
  call void %163(ptr noundef %164, i32 noundef %166, ptr noundef %167, i32 noundef %168)
  br label %169

169:                                              ; preds = %160, %156
  %170 = load i32, ptr %12, align 4
  store i32 %170, ptr %10, align 4
  store i32 1, ptr %28, align 4
  call void @llvm.lifetime.end.p0(i64 8, ptr %27) #8
  call void @llvm.lifetime.end.p0(i64 4, ptr %26) #8
  br label %179

171:                                              ; preds = %121, %118
  %172 = load ptr, ptr %24, align 8
  %173 = load ptr, ptr %11, align 8
  %174 = load i32, ptr %12, align 4
  %175 = sub i32 %174, 4
  %176 = load i32, ptr %25, align 4
  %177 = zext i32 %176 to i64
  call void @proto_tree_add_bitmask_list_value(ptr noundef %172, ptr noundef %173, i32 noundef %175, i32 noundef 4, ptr noundef @dissect_nt_access_mask.access_specific_flags, i64 noundef %177)
  %178 = load i32, ptr %12, align 4
  store i32 %178, ptr %10, align 4
  store i32 1, ptr %28, align 4
  br label %179

179:                                              ; preds = %171, %169
  call void @llvm.lifetime.end.p0(i64 4, ptr %25) #8
  call void @llvm.lifetime.end.p0(i64 8, ptr %24) #8
  call void @llvm.lifetime.end.p0(i64 8, ptr %23) #8
  call void @llvm.lifetime.end.p0(i64 8, ptr %22) #8
  call void @llvm.lifetime.end.p0(i64 8, ptr %21) #8
  call void @llvm.lifetime.end.p0(i64 8, ptr %20) #8
  %180 = load i32, ptr %10, align 4
  ret i32 %180
}