; Function Attrs: null_pointer_is_valid sspstrong uwtable
define hidden i32 @dissect_nt_access_mask(ptr noundef %0, i32 noundef %1, ptr noundef %2, ptr noundef %3, ptr noundef %4, ptr noundef %5, i32 noundef %6, ptr noundef readonly captures(address_is_null) %7, ptr noundef writeonly captures(address_is_null) %8) local_unnamed_addr #1 {
  %10 = alloca ptr, align 8
  %11 = alloca i32, align 4
  call void @llvm.lifetime.start.p0(i64 8, ptr nonnull %10) #7
  call void @llvm.lifetime.start.p0(i64 4, ptr nonnull %11) #7
  %.not = icmp eq ptr %5, null
  br i1 %.not, label %14, label %12

12:                                               ; preds = %9
  %13 = call i32 @dissect_ndr_uint32(ptr noundef %0, i32 noundef %1, ptr noundef %2, ptr noundef null, ptr noundef %4, ptr noundef nonnull %5, i32 noundef %6, ptr noundef nonnull %11)
  %.pre.pre = load i32, ptr %11, align 4
  br label %17

14:                                               ; preds = %9
  %15 = tail call i32 @tvb_get_letohl(ptr noundef %0, i32 noundef %1)
  store i32 %15, ptr %11, align 4
  %16 = add i32 %1, 4
  br label %17

17:                                               ; preds = %14, %12
  %.pre = phi i32 [ %.pre.pre, %12 ], [ %15, %14 ]
  %.058 = phi i32 [ %13, %12 ], [ %16, %14 ]
  %.not66 = icmp eq ptr %8, null
  br i1 %.not66, label %19, label %18

18:                                               ; preds = %17
  store i32 %.pre, ptr %8, align 4
  br label %19

19:                                               ; preds = %18, %17
  %20 = add i32 %.058, -4
  %21 = call ptr @proto_tree_add_uint(ptr noundef %3, i32 noundef %6, ptr noundef %0, i32 noundef %20, i32 noundef 4, i32 noundef %.pre)
  store ptr %21, ptr %10, align 8
  %22 = load i32, ptr @ett_nt_access_mask, align 4
  %23 = call ptr @proto_item_add_subtree(ptr noundef %21, i32 noundef %22)
  %24 = load i32, ptr @ett_nt_access_mask_generic, align 4
  %25 = load i32, ptr %11, align 4
  %26 = and i32 %25, -16777216
  %27 = call ptr (ptr, ptr, i32, i32, i32, ptr, ptr, ...) @proto_tree_add_subtree_format(ptr noundef %23, ptr noundef %0, i32 noundef %20, i32 noundef 4, i32 noundef %24, ptr noundef null, ptr noundef nonnull @.str.29, i32 noundef %26)
  %28 = load i32, ptr %11, align 4
  %29 = zext i32 %28 to i64
  call void @proto_tree_add_bitmask_list_value(ptr noundef %27, ptr noundef %0, i32 noundef %20, i32 noundef 4, ptr noundef nonnull @dissect_nt_access_mask.generic_access_flags, i64 noundef %29)
  %30 = load i32, ptr @ett_nt_access_mask_standard, align 4
  %31 = load i32, ptr %11, align 4
  %32 = and i32 %31, 16711680
  %33 = call ptr (ptr, ptr, i32, i32, i32, ptr, ptr, ...) @proto_tree_add_subtree_format(ptr noundef %23, ptr noundef %0, i32 noundef %20, i32 noundef 4, i32 noundef %30, ptr noundef null, ptr noundef nonnull @.str.30, i32 noundef %32)
  %34 = load i32, ptr %11, align 4
  %35 = zext i32 %34 to i64
  call void @proto_tree_add_bitmask_list_value(ptr noundef %33, ptr noundef %0, i32 noundef %20, i32 noundef 4, ptr noundef nonnull @dissect_nt_access_mask.standard_access_flags, i64 noundef %35)
  %.not67 = icmp eq ptr %7, null
  br i1 %.not67, label %42, label %36

36:                                               ; preds = %19
  %37 = load ptr, ptr %7, align 8
  %.not68 = icmp eq ptr %37, null
  br i1 %.not68, label %42, label %.thread

.thread:                                          ; preds = %36
  %38 = load i32, ptr @ett_nt_access_mask_specific, align 4
  %39 = load i32, ptr %11, align 4
  %40 = and i32 %39, 65535
  %41 = call ptr (ptr, ptr, i32, i32, i32, ptr, ptr, ...) @proto_tree_add_subtree_format(ptr noundef %23, ptr noundef %0, i32 noundef %20, i32 noundef 4, i32 noundef %38, ptr noundef nonnull %10, ptr noundef nonnull @.str.31, ptr noundef nonnull %37, i32 noundef %40)
  br label %47

42:                                               ; preds = %19, %36
  %43 = load i32, ptr @ett_nt_access_mask_specific, align 4
  %44 = load i32, ptr %11, align 4
  %45 = and i32 %44, 65535
  %46 = call ptr (ptr, ptr, i32, i32, i32, ptr, ptr, ...) @proto_tree_add_subtree_format(ptr noundef %23, ptr noundef %0, i32 noundef %20, i32 noundef 4, i32 noundef %43, ptr noundef nonnull %10, ptr noundef nonnull @.str.32, i32 noundef %45)
  br i1 %.not67, label %107, label %47

47:                                               ; preds = %.thread, %42
  %.05975 = phi ptr [ %41, %.thread ], [ %46, %42 ]
  %48 = getelementptr inbounds nuw i8, ptr %7, i64 8
  %49 = load ptr, ptr %48, align 8
  %.not69 = icmp eq ptr %49, null
  br i1 %.not69, label %107, label %50

50:                                               ; preds = %47
  %51 = load i32, ptr %11, align 4
  %52 = load ptr, ptr %10, align 8
  %53 = load i32, ptr @ett_nt_access_mask_specific, align 4
  %54 = call ptr @proto_item_add_subtree(ptr noundef %52, i32 noundef %53)
  %55 = load ptr, ptr %48, align 8
  %56 = load i32, ptr %11, align 4
  call void %55(ptr noundef %0, i32 noundef %20, ptr noundef %.05975, i32 noundef %56)
  %57 = getelementptr inbounds nuw i8, ptr %7, i64 16
  %58 = load ptr, ptr %57, align 8
  %.not70 = icmp eq ptr %58, null
  %.pre77.pre = load i32, ptr %11, align 4
  br i1 %.not70, label %map_generic_access.exit, label %59

59:                                               ; preds = %50
  %.not.i = icmp sgt i32 %.pre77.pre, -1
  br i1 %.not.i, label %64, label %60

60:                                               ; preds = %59
  %61 = and i32 %.pre77.pre, 2147483647
  store i32 %61, ptr %11, align 4
  %62 = load i32, ptr %58, align 4
  %63 = or i32 %62, %61
  store i32 %63, ptr %11, align 4
  br label %64

64:                                               ; preds = %60, %59
  %65 = phi i32 [ %63, %60 ], [ %.pre77.pre, %59 ]
  %66 = and i32 %65, 1073741824
  %.not16.i = icmp eq i32 %66, 0
  br i1 %.not16.i, label %72, label %67

67:                                               ; preds = %64
  %68 = and i32 %65, -1073741825
  %69 = getelementptr inbounds nuw i8, ptr %58, i64 4
  %70 = load i32, ptr %69, align 4
  %71 = or i32 %70, %68
  store i32 %71, ptr %11, align 4
  br label %72

72:                                               ; preds = %67, %64
  %73 = phi i32 [ %71, %67 ], [ %65, %64 ]
  %74 = and i32 %73, 536870912
  %.not17.i = icmp eq i32 %74, 0
  br i1 %.not17.i, label %80, label %75

75:                                               ; preds = %72
  %76 = and i32 %73, -536870913
  %77 = getelementptr inbounds nuw i8, ptr %58, i64 8
  %78 = load i32, ptr %77, align 4
  %79 = or i32 %78, %76
  store i32 %79, ptr %11, align 4
  br label %80

80:                                               ; preds = %75, %72
  %81 = phi i32 [ %79, %75 ], [ %73, %72 ]
  %82 = and i32 %81, 268435456
  %.not18.i = icmp eq i32 %82, 0
  br i1 %.not18.i, label %map_generic_access.exit, label %83

83:                                               ; preds = %80
  %84 = and i32 %81, -268435457
  %85 = getelementptr inbounds nuw i8, ptr %58, i64 12
  %86 = load i32, ptr %85, align 4
  %87 = or i32 %86, %84
  store i32 %87, ptr %11, align 4
  br label %map_generic_access.exit

map_generic_access.exit:                          ; preds = %83, %80, %50
  %.pre77 = phi i32 [ %87, %83 ], [ %81, %80 ], [ %.pre77.pre, %50 ]
  %88 = getelementptr inbounds nuw i8, ptr %7, i64 24
  %89 = load ptr, ptr %88, align 8
  %.not71 = icmp eq ptr %89, null
  br i1 %.not71, label %map_standard_access.exit, label %90

90:                                               ; preds = %map_generic_access.exit
  %91 = and i32 %.pre77, 131072
  %.not.i73 = icmp eq i32 %91, 0
  br i1 %.not.i73, label %96, label %92

92:                                               ; preds = %90
  %93 = and i32 %.pre77, -131073
  store i32 %93, ptr %11, align 4
  %94 = load i32, ptr %89, align 4
  %95 = or i32 %94, %93
  store i32 %95, ptr %11, align 4
  br label %96

96:                                               ; preds = %92, %90
  %97 = phi i32 [ %95, %92 ], [ %.pre77, %90 ]
  %98 = and i32 %97, 1900544
  %.not8.i = icmp eq i32 %98, 0
  br i1 %.not8.i, label %map_standard_access.exit, label %99

99:                                               ; preds = %96
  %100 = and i32 %97, -1900545
  %101 = getelementptr inbounds nuw i8, ptr %89, i64 12
  %102 = load i32, ptr %101, align 4
  %103 = or i32 %102, %100
  store i32 %103, ptr %11, align 4
  br label %map_standard_access.exit

map_standard_access.exit:                         ; preds = %99, %96, %map_generic_access.exit
  %104 = phi i32 [ %103, %99 ], [ %97, %96 ], [ %.pre77, %map_generic_access.exit ]
  %.not72 = icmp eq i32 %104, %51
  br i1 %.not72, label %110, label %105

105:                                              ; preds = %map_standard_access.exit
  %106 = load ptr, ptr %48, align 8
  call void %106(ptr noundef %0, i32 noundef %20, ptr noundef %54, i32 noundef %51)
  br label %110

107:                                              ; preds = %47, %42
  %.05976 = phi ptr [ %.05975, %47 ], [ %46, %42 ]
  %108 = load i32, ptr %11, align 4
  %109 = zext i32 %108 to i64
  call void @proto_tree_add_bitmask_list_value(ptr noundef %.05976, ptr noundef %0, i32 noundef %20, i32 noundef 4, ptr noundef nonnull @dissect_nt_access_mask.access_specific_flags, i64 noundef %109)
  br label %110

110:                                              ; preds = %map_standard_access.exit, %105, %107
  call void @llvm.lifetime.end.p0(i64 4, ptr nonnull %11) #7
  call void @llvm.lifetime.end.p0(i64 8, ptr nonnull %10) #7
  ret i32 %.058
}